; Function Attrs: nounwind uwtable
define i32 @Gia_ManCountFlops(ptr noundef %0, ptr noundef readonly captures(none) %1) local_unnamed_addr #0 {
  %3 = tail call noalias dereferenceable_or_null(16) ptr @malloc(i64 noundef 16) #21
  %4 = getelementptr inbounds nuw i8, ptr %3, i64 4
  store i32 0, ptr %4, align 4, !tbaa !33
  store i32 100, ptr %3, align 8, !tbaa !34
  %5 = tail call noalias dereferenceable_or_null(400) ptr @malloc(i64 noundef 400) #21
  %6 = getelementptr inbounds nuw i8, ptr %3, i64 8
  store ptr %5, ptr %6, align 8, !tbaa !35
  %7 = getelementptr i8, ptr %1, i64 4
  %.val3340 = load i32, ptr %7, align 4, !tbaa !33
  %8 = icmp sgt i32 %.val3340, 0
  br i1 %8, label %.lr.ph, label %.critedge

.lr.ph:                                           ; preds = %2
  %9 = getelementptr i8, ptr %1, i64 8
  %10 = getelementptr i8, ptr %0, i64 72
  br label %11

11:                                               ; preds = %.lr.ph, %Vec_IntPush.exit
  %12 = phi ptr [ %5, %.lr.ph ], [ %.pre.i52, %Vec_IntPush.exit ]
  %indvars.iv = phi i64 [ 0, %.lr.ph ], [ %indvars.iv.next, %Vec_IntPush.exit ]
  %.val35 = load ptr, ptr %9, align 8, !tbaa !35
  %13 = getelementptr inbounds nuw i32, ptr %.val35, i64 %indvars.iv
  %14 = load i32, ptr %13, align 4, !tbaa !31
  %.val38 = load ptr, ptr %10, align 8, !tbaa !39
  %15 = getelementptr i8, ptr %.val38, i64 8
  %.val38.val = load ptr, ptr %15, align 8, !tbaa !35
  %16 = sext i32 %14 to i64
  %17 = getelementptr inbounds i32, ptr %.val38.val, i64 %16
  %18 = load i32, ptr %17, align 4, !tbaa !31
  %19 = load i32, ptr %4, align 4, !tbaa !33
  %20 = load i32, ptr %3, align 8, !tbaa !34
  %21 = icmp eq i32 %19, %20
  br i1 %21, label %22, label %Vec_IntPush.exit

22:                                               ; preds = %11
  %23 = icmp slt i32 %19, 16
  br i1 %23, label %24, label %29

24:                                               ; preds = %22
  %.not9.i.i = icmp eq ptr %12, null
  br i1 %.not9.i.i, label %27, label %25

25:                                               ; preds = %24
  %26 = tail call dereferenceable_or_null(64) ptr @realloc(ptr noundef nonnull %12, i64 noundef 64) #20
  br label %Vec_IntPush.exit.sink.split

27:                                               ; preds = %24
  %28 = tail call noalias dereferenceable_or_null(64) ptr @malloc(i64 noundef 64) #21
  br label %Vec_IntPush.exit.sink.split

29:                                               ; preds = %22
  %30 = shl nuw nsw i32 %19, 1
  %.not9.i9.i = icmp eq ptr %12, null
  %31 = zext nneg i32 %30 to i64
  %32 = shl nuw nsw i64 %31, 2
  br i1 %.not9.i9.i, label %35, label %33

33:                                               ; preds = %29
  %34 = tail call ptr @realloc(ptr noundef nonnull %12, i64 noundef %32) #20
  br label %Vec_IntPush.exit.sink.split

35:                                               ; preds = %29
  %36 = tail call noalias ptr @malloc(i64 noundef %32) #21
  br label %Vec_IntPush.exit.sink.split

Vec_IntPush.exit.sink.split:                      ; preds = %33, %35, %25, %27
  %.sink56 = phi ptr [ %26, %25 ], [ %28, %27 ], [ %34, %33 ], [ %36, %35 ]
  %.sink = phi i32 [ 16, %25 ], [ 16, %27 ], [ %30, %33 ], [ %30, %35 ]
  store ptr %.sink56, ptr %6, align 8, !tbaa !35
  store i32 %.sink, ptr %3, align 8, !tbaa !34
  br label %Vec_IntPush.exit

Vec_IntPush.exit:                                 ; preds = %Vec_IntPush.exit.sink.split, %11
  %.pre.i52 = phi ptr [ %12, %11 ], [ %.sink56, %Vec_IntPush.exit.sink.split ]
  %37 = load i32, ptr %4, align 4, !tbaa !33
  %38 = add nsw i32 %37, 1
  store i32 %38, ptr %4, align 4, !tbaa !33
  %39 = sext i32 %37 to i64
  %40 = getelementptr inbounds i32, ptr %.pre.i52, i64 %39
  store i32 %18, ptr %40, align 4, !tbaa !31
  %indvars.iv.next = add nuw nsw i64 %indvars.iv, 1
  %.val33 = load i32, ptr %7, align 4, !tbaa !33
  %41 = sext i32 %.val33 to i64
  %42 = icmp slt i64 %indvars.iv.next, %41
  br i1 %42, label %11, label %.critedge, !llvm.loop !52

.critedge:                                        ; preds = %Vec_IntPush.exit, %2
  %43 = phi ptr [ %5, %2 ], [ %.pre.i52, %Vec_IntPush.exit ]
  tail call void @Gia_ManIncrementTravId(ptr noundef %0) #23
  %44 = getelementptr i8, ptr %0, i64 32
  %45 = getelementptr inbounds nuw i8, ptr %0, i64 176
  %46 = load i32, ptr %45, align 8, !tbaa !50
  %47 = getelementptr inbounds nuw i8, ptr %0, i64 616
  %48 = load ptr, ptr %47, align 8, !tbaa !49
  store i32 %46, ptr %48, align 4, !tbaa !31
  %.val3242 = load i32, ptr %4, align 4, !tbaa !33
  %49 = icmp sgt i32 %.val3242, 0
  br i1 %49, label %.lr.ph44.preheader, label %.critedge2

.lr.ph44.preheader:                               ; preds = %.critedge
  %.val3658 = load ptr, ptr %44, align 8, !tbaa !12
  %.not59 = icmp eq ptr %.val3658, null
  br i1 %.not59, label %.critedge2.loopexit, label %.lr.ph62

.lr.ph44:                                         ; preds = %.lr.ph62
  %.val36 = load ptr, ptr %44, align 8, !tbaa !12
  %.not = icmp eq ptr %.val36, null
  br i1 %.not, label %.critedge2.loopexit, label %.lr.ph62, !llvm.loop !53

.lr.ph62:                                         ; preds = %.lr.ph44.preheader, %.lr.ph44
  %.val3661 = phi ptr [ %.val36, %.lr.ph44 ], [ %.val3658, %.lr.ph44.preheader ]
  %indvars.iv4860 = phi i64 [ %indvars.iv.next49, %.lr.ph44 ], [ 0, %.lr.ph44.preheader ]
  %.val34 = load ptr, ptr %6, align 8, !tbaa !35
  %50 = getelementptr inbounds nuw i32, ptr %.val34, i64 %indvars.iv4860
  %51 = load i32, ptr %50, align 4, !tbaa !31
  %52 = sext i32 %51 to i64
  %53 = getelementptr inbounds %struct.Gia_Obj_t_, ptr %.val3661, i64 %52
  %54 = tail call i32 @Gia_ManConeMark_rec(ptr noundef nonnull %0, ptr noundef nonnull %53, ptr noundef nonnull %3, i32 noundef 1000000000)
  %.not29 = icmp eq i32 %54, 0
  %.val31.pre.pre = load i32, ptr %4, align 4, !tbaa !33
  %indvars.iv.next49 = add nuw nsw i64 %indvars.iv4860, 1
  %55 = sext i32 %.val31.pre.pre to i64
  %56 = icmp slt i64 %indvars.iv.next49, %55
  %or.cond = select i1 %.not29, i1 %56, i1 false
  br i1 %or.cond, label %.lr.ph44, label %.critedge2.loopexit, !llvm.loop !53

.critedge2.loopexit:                              ; preds = %.lr.ph44, %.lr.ph62, %.lr.ph44.preheader
  %.val31.pre = phi i32 [ %.val3242, %.lr.ph44.preheader ], [ %.val31.pre.pre, %.lr.ph62 ], [ %.val31.pre.pre, %.lr.ph44 ]
  %.pre = load ptr, ptr %6, align 8, !tbaa !35
  br label %.critedge2

.critedge2:                                       ; preds = %.critedge2.loopexit, %.critedge
  %57 = phi ptr [ %.pre, %.critedge2.loopexit ], [ %43, %.critedge ]
  %.val31 = phi i32 [ %.val31.pre, %.critedge2.loopexit ], [ %.val3242, %.critedge ]
  %.val30 = load i32, ptr %7, align 4, !tbaa !33
  %.not.i = icmp eq ptr %57, null
  br i1 %.not.i, label %Vec_IntFree.exit, label %58

58:                                               ; preds = %.critedge2
  tail call void @free(ptr noundef nonnull %57) #23
  br label %Vec_IntFree.exit

Vec_IntFree.exit:                                 ; preds = %.critedge2, %58
  %59 = sub nsw i32 %.val31, %.val30
  tail call void @free(ptr noundef nonnull %3) #23
  ret i32 %59
}